target datalayout = "e-m:e-p270:32:32-p271:32:32-p272:64:64-i64:64-i128:128-f80:128-n8:16:32:64-S128"
target triple = "x86_64-unknown-linux-gnu"

%"class.std::shared_ptr.293" = type { %"class.std::__shared_ptr.294" }
%"class.std::__shared_ptr.294" = type { ptr, %"class.std::__shared_count" }
%"class.std::__shared_count" = type { ptr }
%"class.node::MutexBase" = type { %union.pthread_mutex_t }
%union.pthread_mutex_t = type { %struct.__pthread_mutex_s }
%struct.__pthread_mutex_s = type { i32, i32, i32, i32, i32, i16, i16, %struct.__pthread_internal_list }
%struct.__pthread_internal_list = type { ptr, ptr }
%"class.std::shared_ptr.94" = type { %"class.std::__shared_ptr.95" }
%"class.std::__shared_ptr.95" = type { ptr, %"class.std::__shared_count" }
%"class.std::vector.100" = type { %"struct.std::_Vector_base.101" }
%"struct.std::_Vector_base.101" = type { %"struct.std::_Vector_base<std::__cxx11::basic_string<char>, std::allocator<std::__cxx11::basic_string<char>>>::_Vector_impl" }
%"struct.std::_Vector_base<std::__cxx11::basic_string<char>, std::allocator<std::__cxx11::basic_string<char>>>::_Vector_impl" = type { %"struct.std::_Vector_base<std::__cxx11::basic_string<char>, std::allocator<std::__cxx11::basic_string<char>>>::_Vector_impl_data" }
%"struct.std::_Vector_base<std::__cxx11::basic_string<char>, std::allocator<std::__cxx11::basic_string<char>>>::_Vector_impl_data" = type { ptr, ptr, ptr }
%"class.std::__cxx11::basic_string" = type { %"struct.std::__cxx11::basic_string<char>::_Alloc_hider", i64, %union.anon.85 }
%"struct.std::__cxx11::basic_string<char>::_Alloc_hider" = type { ptr }
%union.anon.85 = type { i64, [8 x i8] }
%"class.node::EnvironmentOptions" = type { %"class.node::Options", i8, %"class.std::vector.100", i8, %"class.std::__cxx11::basic_string", i8, i8, i8, i8, i8, i8, i8, i8, i8, %"class.std::__cxx11::basic_string", %"class.std::__cxx11::basic_string", %"class.std::__cxx11::basic_string", %"class.std::__cxx11::basic_string", i8, i8, %"class.std::vector.100", %"class.std::vector.100", i8, i8, i8, i8, i8, i8, i8, i64, %"class.std::__cxx11::basic_string", i8, i64, i8, i8, i8, i8, i8, %"class.std::vector.100", i8, i8, i8, i8, i8, %"class.std::__cxx11::basic_string", i64, %"class.std::__cxx11::basic_string", i8, %"class.std::__cxx11::basic_string", %"class.std::__cxx11::basic_string", i64, i8, %"class.std::__cxx11::basic_string", %"class.std::__cxx11::basic_string", %"class.std::__cxx11::basic_string", i8, i8, i64, i64, i8, %"class.std::vector.100", %"class.std::vector.100", %"class.std::vector.100", i8, i8, %"class.std::__cxx11::basic_string", i8, i8, i8, i8, i8, i8, i8, i8, i8, i8, %"class.std::__cxx11::basic_string", %"class.std::vector.100", i8, i8, i8, i8, %"class.std::vector.100", i8, i8, %"class.std::__cxx11::basic_string", i8, i8, i8, i8, i8, i8, i8, i8, i8, %"class.std::__cxx11::basic_string", %"class.std::vector.100", %"class.std::vector.100", %"class.std::vector.100", %"class.node::DebugOptions" }
%"class.node::Options" = type { ptr }
%"class.node::DebugOptions" = type { %"class.node::Options", i8, i8, i8, i8, i8, %"class.std::__cxx11::basic_string", %"struct.node::InspectPublishUid", [6 x i8], %"class.node::HostPort" }
%"struct.node::InspectPublishUid" = type { i8, i8 }
%"class.node::HostPort" = type <{ %"class.std::__cxx11::basic_string", i16, [6 x i8] }>
%"class.node::PerProcessOptions" = type { %"class.node::Options", %"class.std::shared_ptr.290", %"class.std::__cxx11::basic_string", %"class.std::__cxx11::basic_string", %"class.std::__cxx11::basic_string", i64, i8, i8, %"class.std::__cxx11::basic_string", i8, %"class.std::__cxx11::basic_string", %"class.std::vector.100", i8, i8, i8, i8, %"class.std::__cxx11::basic_string", %"class.std::__cxx11::basic_string", %"class.std::__cxx11::basic_string", %"class.std::__cxx11::basic_string", i64, i64, i8, i8, i8, i8, i8, i8, i8, i8, i8, %"class.std::__cxx11::basic_string", %"class.std::__cxx11::basic_string", %"class.std::__cxx11::basic_string", i8, %"class.std::vector.100" }
%"class.std::shared_ptr.290" = type { %"class.std::__shared_ptr.291" }
%"class.std::__shared_ptr.291" = type { ptr, %"class.std::__shared_count" }
%"class.node::MutexBase<node::LibuvMutexTraits>::ScopedLock" = type { ptr }
%"struct.node::IsolateSettings" = type { i64, i32, ptr, ptr, ptr, ptr, ptr, ptr }
%"class.node::PerIsolateOptions" = type { %"class.node::Options", %"class.std::shared_ptr.94", i8, i8, i8, i8, %"class.std::__cxx11::basic_string", i8, %"class.std::__cxx11::basic_string" }

@_ZN4node11per_process11cli_optionsE = external global %"class.std::shared_ptr.293", align 8
@_ZN4node11per_process17cli_options_mutexE = external global %"class.node::MutexBase", align 8

; Function Attrs: mustprogress nounwind uwtable
define linkonce_odr dso_local noundef ptr @_ZNKSt12__shared_ptrIN4node17PerProcessOptionsELN9__gnu_cxx12_Lock_policyE2EE3getEv(ptr noundef nonnull align 8 dereferenceable(16) %this) #4 comdat align 2 {
entry:
  %this.addr = alloca ptr, align 8
  store ptr %this, ptr %this.addr, align 8
  %this1 = load ptr, ptr %this.addr, align 8
  %_M_ptr = getelementptr inbounds %"class.std::__shared_ptr.294", ptr %this1, i32 0, i32 0
  %0 = load ptr, ptr %_M_ptr, align 8
  ret ptr %0
}

; Function Attrs: mustprogress nounwind uwtable
define linkonce_odr dso_local void @_ZN4node16LibuvMutexTraits12mutex_unlockEP15pthread_mutex_t(ptr noundef %mutex) #4 comdat align 2 {
entry:
  %mutex.addr = alloca ptr, align 8
  store ptr %mutex, ptr %mutex.addr, align 8
  %0 = load ptr, ptr %mutex.addr, align 8
  call void @uv_mutex_unlock(ptr noundef %0)
  ret void
}

; Function Attrs: mustprogress nounwind uwtable
define linkonce_odr dso_local noundef ptr @_ZNKSt12__shared_ptrIN4node18EnvironmentOptionsELN9__gnu_cxx12_Lock_policyE2EE3getEv(ptr noundef nonnull align 8 dereferenceable(16) %this) #4 comdat align 2 {
entry:
  %this.addr = alloca ptr, align 8
  store ptr %this, ptr %this.addr, align 8
  %this1 = load ptr, ptr %this.addr, align 8
  %_M_ptr = getelementptr inbounds %"class.std::__shared_ptr.95", ptr %this1, i32 0, i32 0
  %0 = load ptr, ptr %_M_ptr, align 8
  ret ptr %0
}

; Function Attrs: mustprogress nounwind uwtable
define linkonce_odr dso_local noundef ptr @_ZNKSt12__shared_ptrIN4node17PerIsolateOptionsELN9__gnu_cxx12_Lock_policyE2EE3getEv(ptr noundef nonnull align 8 dereferenceable(16) %this) #4 comdat align 2 {
entry:
  %this.addr = alloca ptr, align 8
  store ptr %this, ptr %this.addr, align 8
  %this1 = load ptr, ptr %this.addr, align 8
  %_M_ptr = getelementptr inbounds %"class.std::__shared_ptr.291", ptr %this1, i32 0, i32 0
  %0 = load ptr, ptr %_M_ptr, align 8
  ret ptr %0
}

; Function Attrs: mustprogress nounwind uwtable
define linkonce_odr dso_local noundef ptr @_ZNKSt19__shared_ptr_accessIN4node17PerProcessOptionsELN9__gnu_cxx12_Lock_policyE2ELb0ELb0EE6_M_getEv(ptr noundef nonnull align 1 dereferenceable(1) %this) #4 comdat align 2 {
entry:
  %this.addr = alloca ptr, align 8
  store ptr %this, ptr %this.addr, align 8
  %this1 = load ptr, ptr %this.addr, align 8
  %call = call noundef ptr @_ZNKSt12__shared_ptrIN4node17PerProcessOptionsELN9__gnu_cxx12_Lock_policyE2EE3getEv(ptr noundef nonnull align 8 dereferenceable(16) %this1) #3
  ret ptr %call
}

; Function Attrs: mustprogress nounwind uwtable
define linkonce_odr dso_local void @_ZN4node16LibuvMutexTraits10mutex_lockEP15pthread_mutex_t(ptr noundef %mutex) #4 comdat align 2 {
entry:
  %mutex.addr = alloca ptr, align 8
  store ptr %mutex, ptr %mutex.addr, align 8
  %0 = load ptr, ptr %mutex.addr, align 8
  call void @uv_mutex_lock(ptr noundef %0)
  ret void
}

; Function Attrs: mustprogress nounwind uwtable
define linkonce_odr dso_local void @_ZN4node9MutexBaseINS_16LibuvMutexTraitsEE10ScopedLockD2Ev(ptr noundef nonnull align 8 dereferenceable(8) %this) unnamed_addr #4 comdat align 2 {
entry:
  %this.addr = alloca ptr, align 8
  store ptr %this, ptr %this.addr, align 8
  %this1 = load ptr, ptr %this.addr, align 8
  %mutex_ = getelementptr inbounds %"class.node::MutexBase<node::LibuvMutexTraits>::ScopedLock", ptr %this1, i32 0, i32 0
  %0 = load ptr, ptr %mutex_, align 8
  %mutex_2 = getelementptr inbounds %"class.node::MutexBase", ptr %0, i32 0, i32 0
  call void @_ZN4node16LibuvMutexTraits12mutex_unlockEP15pthread_mutex_t(ptr noundef %mutex_2)
  ret void
}

; Function Attrs: mustprogress nounwind uwtable
define linkonce_odr dso_local noundef ptr @_ZN4node17PerIsolateOptions19get_per_env_optionsEv(ptr noundef nonnull align 8 dereferenceable(104) %this) #4 comdat align 2 {
entry:
  %this.addr = alloca ptr, align 8
  store ptr %this, ptr %this.addr, align 8
  %this1 = load ptr, ptr %this.addr, align 8
  %per_env = getelementptr inbounds %"class.node::PerIsolateOptions", ptr %this1, i32 0, i32 1
  %call = call noundef ptr @_ZNKSt12__shared_ptrIN4node18EnvironmentOptionsELN9__gnu_cxx12_Lock_policyE2EE3getEv(ptr noundef nonnull align 8 dereferenceable(16) %per_env) #3
  ret ptr %call
}

; Function Attrs: mustprogress nounwind uwtable
define linkonce_odr dso_local noundef ptr @_ZN4node17PerProcessOptions23get_per_isolate_optionsEv(ptr noundef nonnull align 8 dereferenceable(528) %this) #4 comdat align 2 {
entry:
  %this.addr = alloca ptr, align 8
  store ptr %this, ptr %this.addr, align 8
  %this1 = load ptr, ptr %this.addr, align 8
  %per_isolate = getelementptr inbounds %"class.node::PerProcessOptions", ptr %this1, i32 0, i32 1
  %call = call noundef ptr @_ZNKSt12__shared_ptrIN4node17PerIsolateOptionsELN9__gnu_cxx12_Lock_policyE2EE3getEv(ptr noundef nonnull align 8 dereferenceable(16) %per_isolate) #3
  ret ptr %call
}

; Function Attrs: mustprogress nounwind uwtable
define linkonce_odr dso_local noundef ptr @_ZNKSt19__shared_ptr_accessIN4node17PerProcessOptionsELN9__gnu_cxx12_Lock_policyE2ELb0ELb0EEptEv(ptr noundef nonnull align 1 dereferenceable(1) %this) #4 comdat align 2 {
entry:
  %this.addr = alloca ptr, align 8
  store ptr %this, ptr %this.addr, align 8
  %this1 = load ptr, ptr %this.addr, align 8
  %call = call noundef ptr @_ZNKSt19__shared_ptr_accessIN4node17PerProcessOptionsELN9__gnu_cxx12_Lock_policyE2ELb0ELb0EE6_M_getEv(ptr noundef nonnull align 1 dereferenceable(1) %this1) #3
  ret ptr %call
}

; Function Attrs: mustprogress nounwind uwtable
define linkonce_odr dso_local void @_ZN4node9MutexBaseINS_16LibuvMutexTraitsEE10ScopedLockC2ERKS2_(ptr noundef nonnull align 8 dereferenceable(8) %this, ptr noundef nonnull align 8 dereferenceable(40) %mutex) unnamed_addr #4 comdat align 2 {
entry:
  %this.addr = alloca ptr, align 8
  %mutex.addr = alloca ptr, align 8
  store ptr %this, ptr %this.addr, align 8
  store ptr %mutex, ptr %mutex.addr, align 8
  %this1 = load ptr, ptr %this.addr, align 8
  %mutex_ = getelementptr inbounds %"class.node::MutexBase<node::LibuvMutexTraits>::ScopedLock", ptr %this1, i32 0, i32 0
  %0 = load ptr, ptr %mutex.addr, align 8
  store ptr %0, ptr %mutex_, align 8
  %mutex_2 = getelementptr inbounds %"class.node::MutexBase<node::LibuvMutexTraits>::ScopedLock", ptr %this1, i32 0, i32 0
  %1 = load ptr, ptr %mutex_2, align 8
  %mutex_3 = getelementptr inbounds %"class.node::MutexBase", ptr %1, i32 0, i32 0
  call void @_ZN4node16LibuvMutexTraits10mutex_lockEP15pthread_mutex_t(ptr noundef %mutex_3)
  ret void
}

; Function Attrs: mustprogress nounwind uwtable
define dso_local void @_ZN4node22SetIsolateMiscHandlersEPN2v87IsolateERKNS_15IsolateSettingsE(ptr noundef %isolate, ptr noundef nonnull align 8 dereferenceable(64) %s) #4 {
entry:
  %isolate.addr = alloca ptr, align 8
  %s.addr = alloca ptr, align 8
  %allow_wasm_codegen_cb = alloca ptr, align 8
  %modify_code_generation_from_strings_callback = alloca ptr, align 8
  %lock = alloca %"class.node::MutexBase<node::LibuvMutexTraits>::ScopedLock", align 8
  %promise_reject_cb = alloca ptr, align 8
  store ptr %isolate, ptr %isolate.addr, align 8
  store ptr %s, ptr %s.addr, align 8
  %0 = load ptr, ptr %isolate.addr, align 8
  %1 = load ptr, ptr %s.addr, align 8
  %policy = getelementptr inbounds %"struct.node::IsolateSettings", ptr %1, i32 0, i32 1
  %2 = load i32, ptr %policy, align 8
  call void @_ZN2v87Isolate19SetMicrotasksPolicyENS_16MicrotasksPolicyE(ptr noundef nonnull align 1 dereferenceable(1) %0, i32 noundef %2)
  %3 = load ptr, ptr %s.addr, align 8
  %allow_wasm_code_generation_callback = getelementptr inbounds %"struct.node::IsolateSettings", ptr %3, i32 0, i32 6
  %4 = load ptr, ptr %allow_wasm_code_generation_callback, align 8
  %tobool = icmp ne ptr %4, null
  br i1 %tobool, label %cond.true, label %cond.false

cond.true:                                        ; preds = %entry
  %5 = load ptr, ptr %s.addr, align 8
  %allow_wasm_code_generation_callback1 = getelementptr inbounds %"struct.node::IsolateSettings", ptr %5, i32 0, i32 6
  %6 = load ptr, ptr %allow_wasm_code_generation_callback1, align 8
  br label %cond.end

cond.false:                                       ; preds = %entry
  br label %cond.end

cond.end:                                         ; preds = %cond.false, %cond.true
  %cond = phi ptr [ %6, %cond.true ], [ @_ZN4node31AllowWasmCodeGenerationCallbackEN2v85LocalINS0_7ContextEEENS1_INS0_6StringEEE, %cond.false ]
  store ptr %cond, ptr %allow_wasm_codegen_cb, align 8
  %7 = load ptr, ptr %isolate.addr, align 8
  %8 = load ptr, ptr %allow_wasm_codegen_cb, align 8
  call void @_ZN2v87Isolate34SetAllowWasmCodeGenerationCallbackEPFbNS_5LocalINS_7ContextEEENS1_INS_6StringEEEE(ptr noundef nonnull align 1 dereferenceable(1) %7, ptr noundef %8)
  store ptr @_ZN4node31ModifyCodeGenerationFromStringsEN2v85LocalINS0_7ContextEEENS1_INS0_5ValueEEEb, ptr %modify_code_generation_from_strings_callback, align 8
  %9 = load ptr, ptr %s.addr, align 8
  %modify_code_generation_from_strings_callback2 = getelementptr inbounds %"struct.node::IsolateSettings", ptr %9, i32 0, i32 7
  %10 = load ptr, ptr %modify_code_generation_from_strings_callback2, align 8
  %cmp = icmp ne ptr %10, null
  br i1 %cmp, label %if.then, label %if.end

if.then:                                          ; preds = %cond.end
  %11 = load ptr, ptr %s.addr, align 8
  %modify_code_generation_from_strings_callback3 = getelementptr inbounds %"struct.node::IsolateSettings", ptr %11, i32 0, i32 7
  %12 = load ptr, ptr %modify_code_generation_from_strings_callback3, align 8
  store ptr %12, ptr %modify_code_generation_from_strings_callback, align 8
  br label %if.end

if.end:                                           ; preds = %if.then, %cond.end
  %13 = load ptr, ptr %isolate.addr, align 8
  %14 = load ptr, ptr %modify_code_generation_from_strings_callback, align 8
  call void @_ZN2v87Isolate42SetModifyCodeGenerationFromStringsCallbackEPFNS_37ModifyCodeGenerationFromStringsResultENS_5LocalINS_7ContextEEENS2_INS_5ValueEEEbE(ptr noundef nonnull align 1 dereferenceable(1) %13, ptr noundef %14)
  call void @_ZN4node9MutexBaseINS_16LibuvMutexTraitsEE10ScopedLockC2ERKS2_(ptr noundef nonnull align 8 dereferenceable(8) %lock, ptr noundef nonnull align 8 dereferenceable(40) @_ZN4node11per_process17cli_options_mutexE)
  %call = call noundef ptr @_ZNKSt19__shared_ptr_accessIN4node17PerProcessOptionsELN9__gnu_cxx12_Lock_policyE2ELb0ELb0EEptEv(ptr noundef nonnull align 1 dereferenceable(1) @_ZN4node11per_process11cli_optionsE) #3
  %call4 = call noundef ptr @_ZN4node17PerProcessOptions23get_per_isolate_optionsEv(ptr noundef nonnull align 8 dereferenceable(528) %call)
  %call5 = call noundef ptr @_ZN4node17PerIsolateOptions19get_per_env_optionsEv(ptr noundef nonnull align 8 dereferenceable(104) %call4)
  %experimental_fetch = getelementptr inbounds %"class.node::EnvironmentOptions", ptr %call5, i32 0, i32 6
  %15 = load i8, ptr %experimental_fetch, align 1
  %tobool6 = trunc i8 %15 to i1
  br i1 %tobool6, label %if.then7, label %if.end8

if.then7:                                         ; preds = %if.end
  %16 = load ptr, ptr %isolate.addr, align 8
  call void @_ZN2v87Isolate24SetWasmStreamingCallbackEPFvRKNS_20FunctionCallbackInfoINS_5ValueEEEE(ptr noundef nonnull align 1 dereferenceable(1) %16, ptr noundef @_ZN4node12wasm_web_api25StartStreamingCompilationERKN2v820FunctionCallbackInfoINS1_5ValueEEE)
  br label %if.end8

if.end8:                                          ; preds = %if.then7, %if.end
  %call9 = call noundef ptr @_ZNKSt19__shared_ptr_accessIN4node17PerProcessOptionsELN9__gnu_cxx12_Lock_policyE2ELb0ELb0EEptEv(ptr noundef nonnull align 1 dereferenceable(1) @_ZN4node11per_process11cli_optionsE) #3
  %call10 = call noundef ptr @_ZN4node17PerProcessOptions23get_per_isolate_optionsEv(ptr noundef nonnull align 8 dereferenceable(528) %call9)
  %experimental_shadow_realm = getelementptr inbounds %"class.node::PerIsolateOptions", ptr %call10, i32 0, i32 5
  %17 = load i8, ptr %experimental_shadow_realm, align 1
  %tobool11 = trunc i8 %17 to i1
  br i1 %tobool11, label %if.then12, label %if.end13

if.then12:                                        ; preds = %if.end8
  %18 = load ptr, ptr %isolate.addr, align 8
  call void @_ZN2v87Isolate39SetHostCreateShadowRealmContextCallbackEPFNS_10MaybeLocalINS_7ContextEEENS_5LocalIS2_EEE(ptr noundef nonnull align 1 dereferenceable(1) %18, ptr noundef @_ZN4node12shadow_realm36HostCreateShadowRealmContextCallbackEN2v85LocalINS1_7ContextEEE)
  br label %if.end13

if.end13:                                         ; preds = %if.then12, %if.end8
  %19 = load ptr, ptr %s.addr, align 8
  %flags = getelementptr inbounds %"struct.node::IsolateSettings", ptr %19, i32 0, i32 0
  %20 = load i64, ptr %flags, align 8
  %and = and i64 %20, 4
  %cmp14 = icmp eq i64 %and, 0
  br i1 %cmp14, label %if.then15, label %if.end22

if.then15:                                        ; preds = %if.end13
  %21 = load ptr, ptr %s.addr, align 8
  %promise_reject_callback = getelementptr inbounds %"struct.node::IsolateSettings", ptr %21, i32 0, i32 5
  %22 = load ptr, ptr %promise_reject_callback, align 8
  %tobool16 = icmp ne ptr %22, null
  br i1 %tobool16, label %cond.true17, label %cond.false19

cond.true17:                                      ; preds = %if.then15
  %23 = load ptr, ptr %s.addr, align 8
  %promise_reject_callback18 = getelementptr inbounds %"struct.node::IsolateSettings", ptr %23, i32 0, i32 5
  %24 = load ptr, ptr %promise_reject_callback18, align 8
  br label %cond.end20

cond.false19:                                     ; preds = %if.then15
  br label %cond.end20

cond.end20:                                       ; preds = %cond.false19, %cond.true17
  %cond21 = phi ptr [ %24, %cond.true17 ], [ @_ZN4node21PromiseRejectCallbackEN2v820PromiseRejectMessageE, %cond.false19 ]
  store ptr %cond21, ptr %promise_reject_cb, align 8
  %25 = load ptr, ptr %isolate.addr, align 8
  %26 = load ptr, ptr %promise_reject_cb, align 8
  call void @_ZN2v87Isolate24SetPromiseRejectCallbackEPFvNS_20PromiseRejectMessageEE(ptr noundef nonnull align 1 dereferenceable(1) %25, ptr noundef %26)
  br label %if.end22

if.end22:                                         ; preds = %cond.end20, %if.end13
  %27 = load ptr, ptr %s.addr, align 8
  %flags23 = getelementptr inbounds %"struct.node::IsolateSettings", ptr %27, i32 0, i32 0
  %28 = load i64, ptr %flags23, align 8
  %and24 = and i64 %28, 2
  %tobool25 = icmp ne i64 %and24, 0
  br i1 %tobool25, label %if.then26, label %if.end27

if.then26:                                        ; preds = %if.end22
  %29 = load ptr, ptr %isolate.addr, align 8
  call void @_ZN2v811CpuProfiler38UseDetailedSourcePositionsForProfilingEPNS_7IsolateE(ptr noundef %29)
  br label %if.end27

if.end27:                                         ; preds = %if.then26, %if.end22
  call void @_ZN4node9MutexBaseINS_16LibuvMutexTraitsEE10ScopedLockD2Ev(ptr noundef nonnull align 8 dereferenceable(8) %lock) #3
  ret void
}