; Function Attrs: mustprogress nounwind uwtable
define dso_local void @_ZN4node22SetIsolateMiscHandlersEPN2v87IsolateERKNS_15IsolateSettingsE(ptr noundef nonnull %isolate, ptr nocapture noundef nonnull readonly align 8 dereferenceable(64) %s) local_unnamed_addr #3 {
entry:
  %policy = getelementptr inbounds i8, ptr %s, i64 8
  %0 = load i32, ptr %policy, align 8
  tail call void @_ZN2v87Isolate19SetMicrotasksPolicyENS_16MicrotasksPolicyE(ptr noundef nonnull align 1 dereferenceable(1) %isolate, i32 noundef %0) #12
  %allow_wasm_code_generation_callback = getelementptr inbounds i8, ptr %s, i64 48
  %1 = load ptr, ptr %allow_wasm_code_generation_callback, align 8
  %tobool.not = icmp eq ptr %1, null
  %spec.select = select i1 %tobool.not, ptr @_ZN4node31AllowWasmCodeGenerationCallbackEN2v85LocalINS0_7ContextEEENS1_INS0_6StringEEE, ptr %1
  tail call void @_ZN2v87Isolate34SetAllowWasmCodeGenerationCallbackEPFbNS_5LocalINS_7ContextEEENS1_INS_6StringEEEE(ptr noundef nonnull align 1 dereferenceable(1) %isolate, ptr noundef nonnull %spec.select) #12
  %modify_code_generation_from_strings_callback2 = getelementptr inbounds i8, ptr %s, i64 56
  %2 = load ptr, ptr %modify_code_generation_from_strings_callback2, align 8
  %cmp.not = icmp eq ptr %2, null
  %modify_code_generation_from_strings_callback.0 = select i1 %cmp.not, ptr @_ZN4node31ModifyCodeGenerationFromStringsEN2v85LocalINS0_7ContextEEENS1_INS0_5ValueEEEb, ptr %2
  tail call void @_ZN2v87Isolate42SetModifyCodeGenerationFromStringsCallbackEPFNS_37ModifyCodeGenerationFromStringsResultENS_5LocalINS_7ContextEEENS2_INS_5ValueEEEbE(ptr noundef nonnull align 1 dereferenceable(1) %isolate, ptr noundef nonnull %modify_code_generation_from_strings_callback.0) #12
  tail call void @uv_mutex_lock(ptr noundef nonnull @_ZN4node11per_process17cli_options_mutexE) #12
  %3 = load ptr, ptr @_ZN4node11per_process11cli_optionsE, align 8
  %per_isolate.i = getelementptr inbounds i8, ptr %3, i64 8
  %4 = load ptr, ptr %per_isolate.i, align 8
  %per_env.i = getelementptr inbounds i8, ptr %4, i64 8
  %5 = load ptr, ptr %per_env.i, align 8
  %experimental_fetch = getelementptr inbounds i8, ptr %5, i64 81
  %6 = load i8, ptr %experimental_fetch, align 1
  %7 = and i8 %6, 1
  %tobool6.not = icmp eq i8 %7, 0
  br i1 %tobool6.not, label %if.end8, label %if.then7

if.then7:                                         ; preds = %entry
  tail call void @_ZN2v87Isolate24SetWasmStreamingCallbackEPFvRKNS_20FunctionCallbackInfoINS_5ValueEEEE(ptr noundef nonnull align 1 dereferenceable(1) %isolate, ptr noundef nonnull @_ZN4node12wasm_web_api25StartStreamingCompilationERKN2v820FunctionCallbackInfoINS1_5ValueEEE) #12
  %.pre = load ptr, ptr @_ZN4node11per_process11cli_optionsE, align 8
  %per_isolate.i18.phi.trans.insert = getelementptr inbounds i8, ptr %.pre, i64 8
  %.pre19 = load ptr, ptr %per_isolate.i18.phi.trans.insert, align 8
  br label %if.end8

if.end8:                                          ; preds = %if.then7, %entry
  %8 = phi ptr [ %.pre19, %if.then7 ], [ %4, %entry ]
  %experimental_shadow_realm = getelementptr inbounds i8, ptr %8, i64 27
  %9 = load i8, ptr %experimental_shadow_realm, align 1
  %10 = and i8 %9, 1
  %tobool11.not = icmp eq i8 %10, 0
  br i1 %tobool11.not, label %if.end13, label %if.then12

if.then12:                                        ; preds = %if.end8
  tail call void @_ZN2v87Isolate39SetHostCreateShadowRealmContextCallbackEPFNS_10MaybeLocalINS_7ContextEEENS_5LocalIS2_EEE(ptr noundef nonnull align 1 dereferenceable(1) %isolate, ptr noundef nonnull @_ZN4node12shadow_realm36HostCreateShadowRealmContextCallbackEN2v85LocalINS1_7ContextEEE) #12
  br label %if.end13

if.end13:                                         ; preds = %if.then12, %if.end8
  %11 = load i64, ptr %s, align 8
  %and = and i64 %11, 4
  %cmp14 = icmp eq i64 %and, 0
  br i1 %cmp14, label %if.then15, label %if.end22

if.then15:                                        ; preds = %if.end13
  %promise_reject_callback = getelementptr inbounds i8, ptr %s, i64 40
  %12 = load ptr, ptr %promise_reject_callback, align 8
  %tobool16.not = icmp eq ptr %12, null
  %spec.select17 = select i1 %tobool16.not, ptr @_ZN4node21PromiseRejectCallbackEN2v820PromiseRejectMessageE, ptr %12
  tail call void @_ZN2v87Isolate24SetPromiseRejectCallbackEPFvNS_20PromiseRejectMessageEE(ptr noundef nonnull align 1 dereferenceable(1) %isolate, ptr noundef nonnull %spec.select17) #12
  %.pre20 = load i64, ptr %s, align 8
  br label %if.end22

if.end22:                                         ; preds = %if.then15, %if.end13
  %13 = phi i64 [ %.pre20, %if.then15 ], [ %11, %if.end13 ]
  %and24 = and i64 %13, 2
  %tobool25.not = icmp eq i64 %and24, 0
  br i1 %tobool25.not, label %if.end27, label %if.then26

if.then26:                                        ; preds = %if.end22
  tail call void @_ZN2v811CpuProfiler38UseDetailedSourcePositionsForProfilingEPNS_7IsolateE(ptr noundef nonnull %isolate) #12
  br label %if.end27

if.end27:                                         ; preds = %if.then26, %if.end22
  tail call void @uv_mutex_unlock(ptr noundef nonnull @_ZN4node11per_process17cli_options_mutexE) #12
  ret void
}